target datalayout = "e-m:e-p270:32:32-p271:32:32-p272:64:64-i64:64-i128:128-f80:128-n8:16:32:64-S128"
target triple = "x86_64-pc-linux-gnu"

%struct.ident_t = type { i32, i32, i32, i32, ptr }
%"class.gmx::ArrayRef.479" = type { %"struct.gmx::ArrayRefIter.480", %"struct.gmx::ArrayRefIter.480" }
%"struct.gmx::ArrayRefIter.480" = type { ptr }
%"class.gmx::ArrayRef.817" = type { %"struct.gmx::ArrayRefIter.818", %"struct.gmx::ArrayRefIter.818" }
%"struct.gmx::ArrayRefIter.818" = type { ptr }

@1 = private unnamed_addr constant %struct.ident_t { i32 0, i32 514, i32 0, i32 22, ptr @0 }, align 8

; Function Attrs: mustprogress nounwind uwtable
define linkonce_odr noundef nonnull align 4 dereferenceable(4) ptr @_ZNK3gmx12ArrayRefIterIiEdeEv(ptr noundef nonnull align 8 dereferenceable(8) %0) #0 comdat align 2 {
  %2 = alloca ptr, align 8
  store ptr %0, ptr %2, align 8, !tbaa !895
  %3 = load ptr, ptr %2, align 8
  %4 = getelementptr inbounds nuw %"struct.gmx::ArrayRefIter.480", ptr %3, i32 0, i32 0
  %5 = load ptr, ptr %4, align 8, !tbaa !897
  ret ptr %5
}

; Function Attrs: mustprogress nounwind uwtable
define linkonce_odr noundef nonnull align 8 dereferenceable(8) ptr @_ZN3gmx12ArrayRefIterIiEpLEl(ptr noundef nonnull align 8 dereferenceable(8) %0, i64 noundef %1) #0 comdat align 2 {
  %3 = alloca ptr, align 8
  %4 = alloca i64, align 8
  store ptr %0, ptr %3, align 8, !tbaa !895
  store i64 %1, ptr %4, align 8, !tbaa !155
  %5 = load ptr, ptr %3, align 8
  %6 = load i64, ptr %4, align 8, !tbaa !155
  %7 = getelementptr inbounds nuw %"struct.gmx::ArrayRefIter.480", ptr %5, i32 0, i32 0
  %8 = load ptr, ptr %7, align 8, !tbaa !897
  %9 = getelementptr inbounds i32, ptr %8, i64 %6
  store ptr %9, ptr %7, align 8, !tbaa !897
  ret ptr %5
}

; Function Attrs: mustprogress nounwind uwtable
define linkonce_odr noundef nonnull align 8 dereferenceable(8) ptr @_ZNK3gmx5boost14stl_interfaces2v118iterator_interfaceINS_12ArrayRefIterIiEESt26random_access_iterator_tagiRiPilvE7derivedEv(ptr noundef nonnull align 1 dereferenceable(1) %0) #0 comdat align 2 {
  %2 = alloca ptr, align 8
  store ptr %0, ptr %2, align 8, !tbaa !912
  %3 = load ptr, ptr %2, align 8
  ret ptr %3
}

; Function Attrs: mustprogress nounwind uwtable
define linkonce_odr noundef i64 @_ZNK3gmx12ArrayRefIterIK12gmx_cgsort_tEmiES3_(ptr noundef nonnull align 8 dereferenceable(8) %0, ptr %1) #0 comdat align 2 {
  %3 = alloca %"struct.gmx::ArrayRefIter.818", align 8
  %4 = alloca ptr, align 8
  %5 = getelementptr inbounds nuw %"struct.gmx::ArrayRefIter.818", ptr %3, i32 0, i32 0
  store ptr %1, ptr %5, align 8
  store ptr %0, ptr %4, align 8, !tbaa !1118
  %6 = load ptr, ptr %4, align 8
  %7 = getelementptr inbounds nuw %"struct.gmx::ArrayRefIter.818", ptr %6, i32 0, i32 0
  %8 = load ptr, ptr %7, align 8, !tbaa !1120
  %9 = getelementptr inbounds nuw %"struct.gmx::ArrayRefIter.818", ptr %3, i32 0, i32 0
  %10 = load ptr, ptr %9, align 8, !tbaa !1120
  %11 = ptrtoint ptr %8 to i64
  %12 = ptrtoint ptr %10 to i64
  %13 = sub i64 %11, %12
  %14 = sdiv exact i64 %13, 4
  ret i64 %14
}

; Function Attrs: mustprogress nounwind uwtable
define linkonce_odr noundef nonnull align 4 dereferenceable(4) ptr @_ZNK3gmx5boost14stl_interfaces2v118iterator_interfaceINS_12ArrayRefIterIiEESt26random_access_iterator_tagiRiPilvEixIS5_EEDTcmpLclsr3stdE7declvalIRT_EEfp_declsr3stdE7declvalISC_EEEl(ptr noundef nonnull align 1 dereferenceable(1) %0, i64 noundef %1) #0 comdat align 2 {
  %3 = alloca ptr, align 8
  %4 = alloca i64, align 8
  %5 = alloca %"struct.gmx::ArrayRefIter.480", align 8
  store ptr %0, ptr %3, align 8, !tbaa !912
  store i64 %1, ptr %4, align 8, !tbaa !155
  %6 = load ptr, ptr %3, align 8
  call void @llvm.lifetime.start.p0(i64 8, ptr %5) #17
  %7 = call noundef nonnull align 8 dereferenceable(8) ptr @_ZNK3gmx5boost14stl_interfaces2v118iterator_interfaceINS_12ArrayRefIterIiEESt26random_access_iterator_tagiRiPilvE7derivedEv(ptr noundef nonnull align 1 dereferenceable(1) %6) #17
  call void @llvm.memcpy.p0.p0.i64(ptr align 8 %5, ptr align 8 %7, i64 8, i1 false)
  %8 = load i64, ptr %4, align 8, !tbaa !155
  %9 = call noundef nonnull align 8 dereferenceable(8) ptr @_ZN3gmx12ArrayRefIterIiEpLEl(ptr noundef nonnull align 8 dereferenceable(8) %5, i64 noundef %8) #17
  %10 = call noundef nonnull align 4 dereferenceable(4) ptr @_ZNK3gmx12ArrayRefIterIiEdeEv(ptr noundef nonnull align 8 dereferenceable(8) %5) #17
  call void @llvm.lifetime.end.p0(i64 8, ptr %5) #17
  ret ptr %10
}

; Function Attrs: mustprogress nounwind uwtable
define linkonce_odr noundef i64 @_ZNK3gmx8ArrayRefIK12gmx_cgsort_tE4sizeEv(ptr noundef nonnull align 8 dereferenceable(16) %0) #0 comdat align 2 {
  %2 = alloca ptr, align 8
  %3 = alloca %"struct.gmx::ArrayRefIter.818", align 8
  store ptr %0, ptr %2, align 8, !tbaa !1071
  %4 = load ptr, ptr %2, align 8
  %5 = getelementptr inbounds nuw %"class.gmx::ArrayRef.817", ptr %4, i32 0, i32 1
  %6 = getelementptr inbounds nuw %"class.gmx::ArrayRef.817", ptr %4, i32 0, i32 0
  call void @llvm.memcpy.p0.p0.i64(ptr align 8 %3, ptr align 8 %6, i64 8, i1 false)
  %7 = getelementptr inbounds nuw %"struct.gmx::ArrayRefIter.818", ptr %3, i32 0, i32 0
  %8 = load ptr, ptr %7, align 8
  %9 = call noundef i64 @_ZNK3gmx12ArrayRefIterIK12gmx_cgsort_tEmiES3_(ptr noundef nonnull align 8 dereferenceable(8) %5, ptr %8) #17
  ret i64 %9
}

; Function Attrs: noinline noreturn nounwind uwtable
define linkonce_odr hidden void @__clang_call_terminate(ptr noundef %0) #8 comdat {
  %2 = call ptr @__cxa_begin_catch(ptr %0) #17
  call void @_ZSt9terminatev() #24
  unreachable
}

; Function Attrs: mustprogress nounwind uwtable
define linkonce_odr noundef nonnull align 4 dereferenceable(4) ptr @_ZNK3gmx8ArrayRefIiEixEm(ptr noundef nonnull align 8 dereferenceable(16) %0, i64 noundef %1) #0 comdat align 2 {
  %3 = alloca ptr, align 8
  %4 = alloca i64, align 8
  store ptr %0, ptr %3, align 8, !tbaa !708
  store i64 %1, ptr %4, align 8, !tbaa !155
  %5 = load ptr, ptr %3, align 8
  %6 = getelementptr inbounds nuw %"class.gmx::ArrayRef.479", ptr %5, i32 0, i32 0
  %7 = load i64, ptr %4, align 8, !tbaa !155
  %8 = call noundef nonnull align 4 dereferenceable(4) ptr @_ZNK3gmx5boost14stl_interfaces2v118iterator_interfaceINS_12ArrayRefIterIiEESt26random_access_iterator_tagiRiPilvEixIS5_EEDTcmpLclsr3stdE7declvalIRT_EEfp_declsr3stdE7declvalISC_EEEl(ptr noundef nonnull align 1 dereferenceable(1) %6, i64 noundef %7) #17
  ret ptr %8
}

; Function Attrs: mustprogress uwtable
define linkonce_odr noundef i64 @_ZN3gmx5ssizeINS_8ArrayRefIK12gmx_cgsort_tEEEElRKT_(ptr noundef nonnull align 8 dereferenceable(16) %0) #3 comdat {
  %2 = alloca ptr, align 8
  store ptr %0, ptr %2, align 8, !tbaa !1071
  %3 = load ptr, ptr %2, align 8, !tbaa !1071
  %4 = call noundef i64 @_ZNK3gmx8ArrayRefIK12gmx_cgsort_tE4sizeEv(ptr noundef nonnull align 8 dereferenceable(16) %3)
  ret i64 %4
}

; Function Attrs: alwaysinline norecurse nounwind uwtable
define internal void @_ZL11orderVectorIiEvN3gmx8ArrayRefIK12gmx_cgsort_tEENS1_IT_EES5_S6_.omp_outlined.142(ptr noalias noundef %0, ptr noalias noundef %1, ptr noundef nonnull align 8 dereferenceable(16) %2, ptr noundef nonnull align 8 dereferenceable(16) %3, ptr noundef nonnull align 8 dereferenceable(16) %4) #16 personality ptr @__gxx_personality_v0 {
  %6 = alloca ptr, align 8
  %7 = alloca ptr, align 8
  %8 = alloca ptr, align 8
  %9 = alloca ptr, align 8
  %10 = alloca ptr, align 8
  %11 = alloca i64, align 8
  %12 = alloca i64, align 8
  %13 = alloca i64, align 8
  %14 = alloca i64, align 8
  %15 = alloca i64, align 8
  %16 = alloca i64, align 8
  %17 = alloca i64, align 8
  %18 = alloca i32, align 4
  %19 = alloca i64, align 8
  store ptr %0, ptr %6, align 8, !tbaa !152
  store ptr %1, ptr %7, align 8, !tbaa !152
  store ptr %2, ptr %8, align 8, !tbaa !1071
  store ptr %3, ptr %9, align 8, !tbaa !708
  store ptr %4, ptr %10, align 8, !tbaa !708
  %20 = load ptr, ptr %8, align 8, !tbaa !1071
  %21 = load ptr, ptr %9, align 8, !tbaa !708
  %22 = load ptr, ptr %10, align 8, !tbaa !708
  call void @llvm.lifetime.start.p0(i64 8, ptr %11) #17
  call void @llvm.lifetime.start.p0(i64 8, ptr %12) #17
  %23 = invoke noundef i64 @_ZN3gmx5ssizeINS_8ArrayRefIK12gmx_cgsort_tEEEElRKT_(ptr noundef nonnull align 8 dereferenceable(16) %20)
          to label %24 unwind label %68

24:                                               ; preds = %5
  store i64 %23, ptr %12, align 8, !tbaa !155
  call void @llvm.lifetime.start.p0(i64 8, ptr %13) #17
  %25 = load i64, ptr %12, align 8, !tbaa !155
  %26 = sub nsw i64 %25, 0
  %27 = sdiv i64 %26, 1
  %28 = sub nsw i64 %27, 1
  store i64 %28, ptr %13, align 8, !tbaa !155
  call void @llvm.lifetime.start.p0(i64 8, ptr %14) #17
  store i64 0, ptr %14, align 8, !tbaa !155
  call void @llvm.lifetime.end.p0(i64 8, ptr %14) #17
  %29 = load i64, ptr %12, align 8, !tbaa !155
  %30 = icmp slt i64 0, %29
  br i1 %30, label %31, label %67

31:                                               ; preds = %24
  call void @llvm.lifetime.start.p0(i64 8, ptr %15) #17
  store i64 0, ptr %15, align 8, !tbaa !155
  call void @llvm.lifetime.start.p0(i64 8, ptr %16) #17
  %32 = load i64, ptr %13, align 8, !tbaa !155
  store i64 %32, ptr %16, align 8, !tbaa !155
  call void @llvm.lifetime.start.p0(i64 8, ptr %17) #17
  store i64 1, ptr %17, align 8, !tbaa !155
  call void @llvm.lifetime.start.p0(i64 4, ptr %18) #17
  store i32 0, ptr %18, align 4, !tbaa !141
  call void @llvm.lifetime.start.p0(i64 8, ptr %19) #17
  %33 = load ptr, ptr %6, align 8
  %34 = load i32, ptr %33, align 4, !tbaa !141
  call void @__kmpc_for_static_init_8(ptr @1, i32 %34, i32 34, ptr %18, ptr %15, ptr %16, ptr %17, i64 1, i64 1)
  %35 = load i64, ptr %16, align 8, !tbaa !155
  %36 = load i64, ptr %13, align 8, !tbaa !155
  %37 = icmp sgt i64 %35, %36
  br i1 %37, label %38, label %40

38:                                               ; preds = %31
  %39 = load i64, ptr %13, align 8, !tbaa !155
  br label %42

40:                                               ; preds = %31
  %41 = load i64, ptr %16, align 8, !tbaa !155
  br label %42

42:                                               ; preds = %40, %38
  %43 = phi i64 [ %39, %38 ], [ %41, %40 ]
  store i64 %43, ptr %16, align 8, !tbaa !155
  %44 = load i64, ptr %15, align 8, !tbaa !155
  store i64 %44, ptr %11, align 8, !tbaa !155
  br label %45

45:                                               ; preds = %60, %42
  %46 = load i64, ptr %11, align 8, !tbaa !155
  %47 = load i64, ptr %16, align 8, !tbaa !155
  %48 = icmp sle i64 %46, %47
  br i1 %48, label %50, label %49

49:                                               ; preds = %45
  br label %63

50:                                               ; preds = %45
  %51 = load i64, ptr %11, align 8, !tbaa !155
  %52 = mul nsw i64 %51, 1
  %53 = add nsw i64 0, %52
  store i64 %53, ptr %19, align 8, !tbaa !155
  %54 = load i64, ptr %19, align 8, !tbaa !155
  %55 = call noundef nonnull align 4 dereferenceable(4) ptr @_ZNK3gmx8ArrayRefIiEixEm(ptr noundef nonnull align 8 dereferenceable(16) %22, i64 noundef %54)
  %56 = load i32, ptr %55, align 4, !tbaa !141
  %57 = load i64, ptr %19, align 8, !tbaa !155
  %58 = call noundef nonnull align 4 dereferenceable(4) ptr @_ZNK3gmx8ArrayRefIiEixEm(ptr noundef nonnull align 8 dereferenceable(16) %21, i64 noundef %57)
  store i32 %56, ptr %58, align 4, !tbaa !141
  br label %59

59:                                               ; preds = %50
  br label %60

60:                                               ; preds = %59
  %61 = load i64, ptr %11, align 8, !tbaa !155
  %62 = add nsw i64 %61, 1
  store i64 %62, ptr %11, align 8, !tbaa !155
  br label %45

63:                                               ; preds = %49
  br label %64

64:                                               ; preds = %63
  %65 = load ptr, ptr %6, align 8
  %66 = load i32, ptr %65, align 4, !tbaa !141
  call void @__kmpc_for_static_fini(ptr @1, i32 %66)
  call void @llvm.lifetime.end.p0(i64 8, ptr %19) #17
  call void @llvm.lifetime.end.p0(i64 4, ptr %18) #17
  call void @llvm.lifetime.end.p0(i64 8, ptr %17) #17
  call void @llvm.lifetime.end.p0(i64 8, ptr %16) #17
  call void @llvm.lifetime.end.p0(i64 8, ptr %15) #17
  br label %67

67:                                               ; preds = %64, %24
  call void @llvm.lifetime.end.p0(i64 8, ptr %13) #17
  call void @llvm.lifetime.end.p0(i64 8, ptr %12) #17
  call void @llvm.lifetime.end.p0(i64 8, ptr %11) #17
  ret void

68:                                               ; preds = %5
  %69 = landingpad { ptr, i32 }
          catch ptr null
  %70 = extractvalue { ptr, i32 } %69, 0
  call void @__clang_call_terminate(ptr %70) #24
  unreachable
}